target datalayout = "e-m:e-p270:32:32-p271:32:32-p272:64:64-i64:64-i128:128-f80:128-n8:16:32:64-S128"
target triple = "x86_64-pc-linux-gnu"

%struct.expert_field = type { i32, i32 }
%struct._xml_frame_t = type { i32, ptr, ptr, ptr, ptr, ptr, ptr, ptr, ptr, ptr, ptr, ptr, ptr, i32, i32, ptr, ptr }
%struct._GPtrArray = type { ptr, i32 }
%struct._tvbparse_elem_t = type { i32, ptr, ptr, i32, i32, ptr, ptr, ptr, ptr, ptr }

@ei_xml_closing_unopened_xmpli_tag = internal global %struct.expert_field zeroinitializer, align 4

; Function Attrs: null_pointer_is_valid sspstrong uwtable
define internal void @after_xmlpi(ptr noundef %0, ptr noundef %1, ptr noundef %2) #3 {
  %4 = alloca ptr, align 8
  %5 = alloca ptr, align 8
  %6 = alloca ptr, align 8
  %7 = alloca ptr, align 8
  %8 = alloca ptr, align 8
  store ptr %0, ptr %4, align 8
  store ptr %1, ptr %5, align 8
  store ptr %2, ptr %6, align 8
  call void @llvm.lifetime.start.p0(i64 8, ptr %7) #10
  %9 = load ptr, ptr %4, align 8
  store ptr %9, ptr %7, align 8
  call void @llvm.lifetime.start.p0(i64 8, ptr %8) #10
  %10 = load ptr, ptr %7, align 8
  %11 = getelementptr inbounds nuw %struct._GPtrArray, ptr %10, i32 0, i32 0
  %12 = load ptr, ptr %11, align 8
  %13 = load ptr, ptr %7, align 8
  %14 = getelementptr inbounds nuw %struct._GPtrArray, ptr %13, i32 0, i32 1
  %15 = load i32, ptr %14, align 8
  %16 = sub i32 %15, 1
  %17 = zext i32 %16 to i64
  %18 = getelementptr ptr, ptr %12, i64 %17
  %19 = load ptr, ptr %18, align 8
  store ptr %19, ptr %8, align 8
  %20 = load ptr, ptr %8, align 8
  %21 = getelementptr inbounds nuw %struct._xml_frame_t, ptr %20, i32 0, i32 9
  %22 = load ptr, ptr %21, align 8
  %23 = load ptr, ptr %6, align 8
  %24 = getelementptr inbounds nuw %struct._tvbparse_elem_t, ptr %23, i32 0, i32 2
  %25 = load ptr, ptr %24, align 8
  %26 = load ptr, ptr %6, align 8
  %27 = getelementptr inbounds nuw %struct._tvbparse_elem_t, ptr %26, i32 0, i32 3
  %28 = load i32, ptr %27, align 8
  %29 = load ptr, ptr %6, align 8
  %30 = getelementptr inbounds nuw %struct._tvbparse_elem_t, ptr %29, i32 0, i32 4
  %31 = load i32, ptr %30, align 4
  %32 = call ptr @proto_tree_add_format_text(ptr noundef %22, ptr noundef %25, i32 noundef %28, i32 noundef %31)
  %33 = load ptr, ptr %7, align 8
  %34 = getelementptr inbounds nuw %struct._GPtrArray, ptr %33, i32 0, i32 1
  %35 = load i32, ptr %34, align 8
  %36 = icmp ugt i32 %35, 1
  br i1 %36, label %37, label %44

37:                                               ; preds = %3
  %38 = load ptr, ptr %7, align 8
  %39 = load ptr, ptr %7, align 8
  %40 = getelementptr inbounds nuw %struct._GPtrArray, ptr %39, i32 0, i32 1
  %41 = load i32, ptr %40, align 8
  %42 = sub i32 %41, 1
  %43 = call ptr @g_ptr_array_remove_index_fast(ptr noundef %38, i32 noundef %42)
  br label %61

44:                                               ; preds = %3
  %45 = load ptr, ptr %8, align 8
  %46 = getelementptr inbounds nuw %struct._xml_frame_t, ptr %45, i32 0, i32 9
  %47 = load ptr, ptr %46, align 8
  %48 = load ptr, ptr %8, align 8
  %49 = getelementptr inbounds nuw %struct._xml_frame_t, ptr %48, i32 0, i32 15
  %50 = load ptr, ptr %49, align 8
  %51 = load ptr, ptr %6, align 8
  %52 = getelementptr inbounds nuw %struct._tvbparse_elem_t, ptr %51, i32 0, i32 2
  %53 = load ptr, ptr %52, align 8
  %54 = load ptr, ptr %6, align 8
  %55 = getelementptr inbounds nuw %struct._tvbparse_elem_t, ptr %54, i32 0, i32 3
  %56 = load i32, ptr %55, align 8
  %57 = load ptr, ptr %6, align 8
  %58 = getelementptr inbounds nuw %struct._tvbparse_elem_t, ptr %57, i32 0, i32 4
  %59 = load i32, ptr %58, align 4
  %60 = call ptr @proto_tree_add_expert(ptr noundef %47, ptr noundef %50, ptr noundef @ei_xml_closing_unopened_xmpli_tag, ptr noundef %53, i32 noundef %56, i32 noundef %59)
  br label %61

61:                                               ; preds = %44, %37
  call void @llvm.lifetime.end.p0(i64 8, ptr %8) #10
  call void @llvm.lifetime.end.p0(i64 8, ptr %7) #10
  ret void
}